; Function Attrs: nounwind uwtable
define dso_local i32 @rioWriteBulkStreamID(ptr noundef %0, ptr noundef readonly captures(none) %1) local_unnamed_addr #0 {
  %3 = tail call ptr @sdsempty() #20
  %4 = load i64, ptr %1, align 8, !tbaa !175
  %5 = getelementptr inbounds nuw i8, ptr %1, i64 8
  %6 = load i64, ptr %5, align 8, !tbaa !177
  %7 = tail call ptr (ptr, ptr, ...) @sdscatfmt(ptr noundef %3, ptr noundef nonnull @.str.128, i64 noundef %4, i64 noundef %6) #20
  %8 = getelementptr inbounds i8, ptr %7, i64 -1
  %9 = load i8, ptr %8, align 1, !tbaa !18
  %10 = zext i8 %9 to i32
  %11 = and i32 %10, 7
  switch i32 %11, label %sdslen.exit [
    i32 0, label %12
    i32 1, label %15
    i32 2, label %19
    i32 3, label %23
    i32 4, label %27
  ]

12:                                               ; preds = %2
  %13 = lshr i32 %10, 3
  %14 = zext nneg i32 %13 to i64
  br label %sdslen.exit

15:                                               ; preds = %2
  %16 = getelementptr inbounds i8, ptr %7, i64 -3
  %17 = load i8, ptr %16, align 1, !tbaa !18
  %18 = zext i8 %17 to i64
  br label %sdslen.exit

19:                                               ; preds = %2
  %20 = getelementptr inbounds i8, ptr %7, i64 -5
  %21 = load i16, ptr %20, align 1, !tbaa !19
  %22 = zext i16 %21 to i64
  br label %sdslen.exit

23:                                               ; preds = %2
  %24 = getelementptr inbounds i8, ptr %7, i64 -9
  %25 = load i32, ptr %24, align 1, !tbaa !21
  %26 = zext i32 %25 to i64
  br label %sdslen.exit

27:                                               ; preds = %2
  %28 = getelementptr inbounds i8, ptr %7, i64 -17
  %29 = load i64, ptr %28, align 1, !tbaa !22
  br label %sdslen.exit

sdslen.exit:                                      ; preds = %2, %12, %15, %19, %23, %27
  %.0.i = phi i64 [ %29, %27 ], [ %26, %23 ], [ %22, %19 ], [ %18, %15 ], [ %14, %12 ], [ 0, %2 ]
  %30 = tail call i64 @rioWriteBulkString(ptr noundef %0, ptr noundef nonnull %7, i64 noundef %.0.i) #20
  %31 = trunc i64 %30 to i32
  tail call void @sdsfree(ptr noundef nonnull %7) #20
  ret i32 %31
}